; Function Attrs: mustprogress nounwind uwtable
define dso_local void @_ZN5clang14TextNodeDumper5VisitERKNS_9BlockDecl7CaptureE(ptr noundef nonnull align 8 dereferenceable(1168) %0, ptr nocapture noundef nonnull readonly align 8 dereferenceable(16) %1) local_unnamed_addr #0 align 2 {
  %3 = getelementptr inbounds nuw i8, ptr %0, i64 1096
  %4 = load ptr, ptr %3, align 8
  %5 = getelementptr inbounds nuw i8, ptr %4, i64 24
  %6 = load ptr, ptr %5, align 8
  %7 = getelementptr inbounds nuw i8, ptr %4, i64 32
  %8 = load ptr, ptr %7, align 8
  %9 = ptrtoint ptr %6 to i64
  %10 = ptrtoint ptr %8 to i64
  %11 = sub i64 %9, %10
  %12 = icmp ult i64 %11, 7
  br i1 %12, label %13, label %15

13:                                               ; preds = %2
  %14 = tail call noundef nonnull align 8 dereferenceable(48) ptr @_ZN4llvm11raw_ostream5writeEPKcm(ptr noundef nonnull align 8 dereferenceable(48) %4, ptr noundef nonnull @.str.459, i64 noundef 7) #18
  br label %_ZN4llvm11raw_ostreamlsEPKc.exit

15:                                               ; preds = %2
  tail call void @llvm.memcpy.p0.p0.i64(ptr noundef nonnull align 1 dereferenceable(7) %8, ptr noundef nonnull align 1 dereferenceable(7) @.str.459, i64 7, i1 false)
  %16 = load ptr, ptr %7, align 8
  %17 = getelementptr inbounds i8, ptr %16, i64 7
  store ptr %17, ptr %7, align 8
  br label %_ZN4llvm11raw_ostreamlsEPKc.exit

_ZN4llvm11raw_ostreamlsEPKc.exit:                 ; preds = %13, %15
  %.0.copyload.i.i.i.i = load i64, ptr %1, align 8
  %18 = and i64 %.0.copyload.i.i.i.i, 2
  %.not14 = icmp eq i64 %18, 0
  br i1 %.not14, label %_ZN4llvm11raw_ostreamlsEPKc.exit7, label %19

19:                                               ; preds = %_ZN4llvm11raw_ostreamlsEPKc.exit
  %20 = load ptr, ptr %3, align 8
  %21 = getelementptr inbounds nuw i8, ptr %20, i64 24
  %22 = load ptr, ptr %21, align 8
  %23 = getelementptr inbounds nuw i8, ptr %20, i64 32
  %24 = load ptr, ptr %23, align 8
  %25 = ptrtoint ptr %22 to i64
  %26 = ptrtoint ptr %24 to i64
  %27 = sub i64 %25, %26
  %28 = icmp ult i64 %27, 6
  br i1 %28, label %29, label %31

29:                                               ; preds = %19
  %30 = tail call noundef nonnull align 8 dereferenceable(48) ptr @_ZN4llvm11raw_ostream5writeEPKcm(ptr noundef nonnull align 8 dereferenceable(48) %20, ptr noundef nonnull @.str.460, i64 noundef 6) #18
  br label %_ZN4llvm11raw_ostreamlsEPKc.exit7

31:                                               ; preds = %19
  tail call void @llvm.memcpy.p0.p0.i64(ptr noundef nonnull align 1 dereferenceable(6) %24, ptr noundef nonnull align 1 dereferenceable(6) @.str.460, i64 6, i1 false)
  %32 = load ptr, ptr %23, align 8
  %33 = getelementptr inbounds i8, ptr %32, i64 6
  store ptr %33, ptr %23, align 8
  br label %_ZN4llvm11raw_ostreamlsEPKc.exit7

_ZN4llvm11raw_ostreamlsEPKc.exit7:                ; preds = %31, %29, %_ZN4llvm11raw_ostreamlsEPKc.exit
  %.0.copyload.i.i.i.i8 = load i64, ptr %1, align 8
  %34 = and i64 %.0.copyload.i.i.i.i8, 4
  %.not15 = icmp eq i64 %34, 0
  br i1 %.not15, label %_ZN4llvm11raw_ostreamlsEPKc.exit11, label %35

35:                                               ; preds = %_ZN4llvm11raw_ostreamlsEPKc.exit7
  %36 = load ptr, ptr %3, align 8
  %37 = getelementptr inbounds nuw i8, ptr %36, i64 24
  %38 = load ptr, ptr %37, align 8
  %39 = getelementptr inbounds nuw i8, ptr %36, i64 32
  %40 = load ptr, ptr %39, align 8
  %41 = ptrtoint ptr %38 to i64
  %42 = ptrtoint ptr %40 to i64
  %43 = sub i64 %41, %42
  %44 = icmp ult i64 %43, 7
  br i1 %44, label %45, label %47

45:                                               ; preds = %35
  %46 = tail call noundef nonnull align 8 dereferenceable(48) ptr @_ZN4llvm11raw_ostream5writeEPKcm(ptr noundef nonnull align 8 dereferenceable(48) %36, ptr noundef nonnull @.str.461, i64 noundef 7) #18
  br label %_ZN4llvm11raw_ostreamlsEPKc.exit11thread-pre-split

47:                                               ; preds = %35
  tail call void @llvm.memcpy.p0.p0.i64(ptr noundef nonnull align 1 dereferenceable(7) %40, ptr noundef nonnull align 1 dereferenceable(7) @.str.461, i64 7, i1 false)
  %48 = load ptr, ptr %39, align 8
  %49 = getelementptr inbounds i8, ptr %48, i64 7
  store ptr %49, ptr %39, align 8
  br label %_ZN4llvm11raw_ostreamlsEPKc.exit11thread-pre-split

_ZN4llvm11raw_ostreamlsEPKc.exit11thread-pre-split: ; preds = %45, %47
  %.0.copyload.i.i.i.i12.pr = load i64, ptr %1, align 8
  br label %_ZN4llvm11raw_ostreamlsEPKc.exit11

_ZN4llvm11raw_ostreamlsEPKc.exit11:               ; preds = %_ZN4llvm11raw_ostreamlsEPKc.exit11thread-pre-split, %_ZN4llvm11raw_ostreamlsEPKc.exit7
  %.0.copyload.i.i.i.i12 = phi i64 [ %.0.copyload.i.i.i.i12.pr, %_ZN4llvm11raw_ostreamlsEPKc.exit11thread-pre-split ], [ %.0.copyload.i.i.i.i8, %_ZN4llvm11raw_ostreamlsEPKc.exit7 ]
  %.not = icmp ult i64 %.0.copyload.i.i.i.i12, 8
  br i1 %.not, label %62, label %50

50:                                               ; preds = %_ZN4llvm11raw_ostreamlsEPKc.exit11
  %51 = load ptr, ptr %3, align 8
  %52 = getelementptr inbounds nuw i8, ptr %51, i64 32
  %53 = load ptr, ptr %52, align 8
  %54 = getelementptr inbounds nuw i8, ptr %51, i64 24
  %55 = load ptr, ptr %54, align 8
  %.not.i = icmp ult ptr %53, %55
  br i1 %.not.i, label %58, label %56

56:                                               ; preds = %50
  %57 = tail call noundef nonnull align 8 dereferenceable(48) ptr @_ZN4llvm11raw_ostream5writeEh(ptr noundef nonnull align 8 dereferenceable(48) %51, i8 noundef zeroext 32) #18
  br label %_ZN4llvm11raw_ostreamlsEc.exit

58:                                               ; preds = %50
  %59 = getelementptr inbounds i8, ptr %53, i64 1
  store ptr %59, ptr %52, align 8
  store i8 32, ptr %53, align 1
  br label %_ZN4llvm11raw_ostreamlsEc.exit

_ZN4llvm11raw_ostreamlsEc.exit:                   ; preds = %56, %58
  %.0.copyload.i.i.i.i13 = load i64, ptr %1, align 8
  %60 = and i64 %.0.copyload.i.i.i.i13, -8
  %61 = inttoptr i64 %60 to ptr
  tail call void @_ZN5clang14TextNodeDumper15dumpBareDeclRefEPKNS_4DeclE(ptr noundef nonnull align 8 dereferenceable(1168) %0, ptr noundef %61)
  br label %62

62:                                               ; preds = %_ZN4llvm11raw_ostreamlsEc.exit, %_ZN4llvm11raw_ostreamlsEPKc.exit11
  ret void
}